; ModuleID = 'source-C-CXX/46/1761.cpp'
source_filename = "source-C-CXX/46/1761.cpp"
target datalayout = "e-m:e-p270:32:32-p271:32:32-p272:64:64-i64:64-f80:128-n8:16:32:64-S128"
target triple = "x86_64-pc-linux-gnu"

%"class.std::ios_base::Init" = type { i8 }
%"class.std::basic_istream" = type { i32 (...)**, i64, %"class.std::basic_ios" }
%"class.std::basic_ios" = type { %"class.std::ios_base", %"class.std::basic_ostream"*, i8, i8, %"class.std::basic_streambuf"*, %"class.std::ctype"*, %"class.std::num_put"*, %"class.std::num_get"* }
%"class.std::ios_base" = type { i32 (...)**, i64, i64, i32, i32, i32, %"struct.std::ios_base::_Callback_list"*, %"struct.std::ios_base::_Words", [8 x %"struct.std::ios_base::_Words"], i32, %"struct.std::ios_base::_Words"*, %"class.std::locale" }
%"struct.std::ios_base::_Callback_list" = type { %"struct.std::ios_base::_Callback_list"*, void (i32, %"class.std::ios_base"*, i32)*, i32, i32 }
%"struct.std::ios_base::_Words" = type { i8*, i64 }
%"class.std::locale" = type { %"class.std::locale::_Impl"* }
%"class.std::locale::_Impl" = type { i32, %"class.std::locale::facet"**, i64, %"class.std::locale::facet"**, i8** }
%"class.std::locale::facet" = type <{ i32 (...)**, i32, [4 x i8] }>
%"class.std::basic_ostream" = type { i32 (...)**, %"class.std::basic_ios" }
%"class.std::basic_streambuf" = type { i32 (...)**, i8*, i8*, i8*, i8*, i8*, i8*, %"class.std::locale" }
%"class.std::ctype" = type <{ %"class.std::locale::facet.base", [4 x i8], %struct.__locale_struct*, i8, [7 x i8], i32*, i32*, i16*, i8, [256 x i8], [256 x i8], i8, [6 x i8] }>
%"class.std::locale::facet.base" = type <{ i32 (...)**, i32 }>
%struct.__locale_struct = type { [13 x %struct.__locale_data*], i16*, i32*, i32*, [13 x i8*] }
%struct.__locale_data = type opaque
%"class.std::num_put" = type { %"class.std::locale::facet.base", [4 x i8] }
%"class.std::num_get" = type { %"class.std::locale::facet.base", [4 x i8] }

@_ZStL8__ioinit = internal global %"class.std::ios_base::Init" zeroinitializer, align 1
@__dso_handle = external hidden global i8
@_ZSt3cin = external global %"class.std::basic_istream", align 8
@_ZSt4cout = external global %"class.std::basic_ostream", align 8
@.str = private unnamed_addr constant [2 x i8] c" \00", align 1
@llvm.global_ctors = appending global [1 x { i32, void ()*, i8* }] [{ i32, void ()*, i8* } { i32 65535, void ()* @_GLOBAL__sub_I_1761.cpp, i8* null }]

declare void @_ZNSt8ios_base4InitC1Ev(%"class.std::ios_base::Init"* nonnull align 1 dereferenceable(1)) unnamed_addr #0

; Function Attrs: nounwind
declare void @_ZNSt8ios_base4InitD1Ev(%"class.std::ios_base::Init"* nonnull align 1 dereferenceable(1)) unnamed_addr #1

; Function Attrs: nofree nounwind
declare i32 @__cxa_atexit(void (i8*)*, i8*, i8*) local_unnamed_addr #2

; Function Attrs: mustprogress norecurse sspstrong uwtable
define dso_local i32 @main() local_unnamed_addr #3 {
  %1 = alloca [101 x i32], align 16
  %2 = alloca i32, align 4
  %3 = bitcast [101 x i32]* %1 to i8*
  call void @llvm.lifetime.start.p0i8(i64 404, i8* nonnull %3) #6
  %4 = bitcast i32* %2 to i8*
  call void @llvm.lifetime.start.p0i8(i64 4, i8* nonnull %4) #6
  %5 = getelementptr inbounds [101 x i32], [101 x i32]* %1, i64 0, i64 0
  %6 = call nonnull align 8 dereferenceable(16) %"class.std::basic_istream"* @_ZNSirsERi(%"class.std::basic_istream"* nonnull align 8 dereferenceable(16) @_ZSt3cin, i32* nonnull align 4 dereferenceable(4) %2)
  %7 = load i32, i32* %2, align 4, !tbaa !5
  %8 = icmp sgt i32 %7, 0
  br i1 %8, label %20, label %54

9:                                                ; preds = %20
  %10 = sext i32 %26 to i64
  %11 = getelementptr inbounds [101 x i32], [101 x i32]* %1, i64 0, i64 %10
  %12 = icmp sgt i32 %26, 1
  br i1 %12, label %13, label %54

13:                                               ; preds = %9
  %14 = lshr i32 %26, 1
  %15 = zext i32 %14 to i64
  %16 = and i64 %15, 1
  %17 = icmp eq i32 %14, 1
  br i1 %17, label %45, label %18

18:                                               ; preds = %13
  %19 = and i64 %15, 2147483646
  br label %28

20:                                               ; preds = %0, %20
  %21 = phi i32* [ %23, %20 ], [ %5, %0 ]
  %22 = phi i32 [ %25, %20 ], [ 0, %0 ]
  %23 = getelementptr inbounds i32, i32* %21, i64 1
  %24 = call nonnull align 8 dereferenceable(16) %"class.std::basic_istream"* @_ZNSirsERi(%"class.std::basic_istream"* nonnull align 8 dereferenceable(16) @_ZSt3cin, i32* nonnull align 4 dereferenceable(4) %21)
  %25 = add nuw nsw i32 %22, 1
  %26 = load i32, i32* %2, align 4, !tbaa !5
  %27 = icmp slt i32 %25, %26
  br i1 %27, label %20, label %9, !llvm.loop !9

28:                                               ; preds = %28, %18
  %29 = phi i64 [ 0, %18 ], [ %42, %28 ]
  %30 = phi i64 [ %19, %18 ], [ %43, %28 ]
  %31 = getelementptr inbounds [101 x i32], [101 x i32]* %1, i64 0, i64 %29
  %32 = xor i64 %29, -1
  %33 = getelementptr inbounds i32, i32* %11, i64 %32
  %34 = load i32, i32* %31, align 8, !tbaa !5
  %35 = load i32, i32* %33, align 4, !tbaa !5
  store i32 %35, i32* %31, align 8, !tbaa !5
  store i32 %34, i32* %33, align 4, !tbaa !5
  %36 = or i64 %29, 1
  %37 = getelementptr inbounds [101 x i32], [101 x i32]* %1, i64 0, i64 %36
  %38 = sub nuw nsw i64 -2, %29
  %39 = getelementptr inbounds i32, i32* %11, i64 %38
  %40 = load i32, i32* %37, align 4, !tbaa !5
  %41 = load i32, i32* %39, align 4, !tbaa !5
  store i32 %41, i32* %37, align 4, !tbaa !5
  store i32 %40, i32* %39, align 4, !tbaa !5
  %42 = add nuw nsw i64 %29, 2
  %43 = add i64 %30, -2
  %44 = icmp eq i64 %43, 0
  br i1 %44, label %45, label %28, !llvm.loop !11

45:                                               ; preds = %28, %13
  %46 = phi i64 [ 0, %13 ], [ %42, %28 ]
  %47 = icmp eq i64 %16, 0
  br i1 %47, label %54, label %48

48:                                               ; preds = %45
  %49 = getelementptr inbounds [101 x i32], [101 x i32]* %1, i64 0, i64 %46
  %50 = xor i64 %46, -1
  %51 = getelementptr inbounds i32, i32* %11, i64 %50
  %52 = load i32, i32* %49, align 4, !tbaa !5
  %53 = load i32, i32* %51, align 4, !tbaa !5
  store i32 %53, i32* %49, align 4, !tbaa !5
  store i32 %52, i32* %51, align 4, !tbaa !5
  br label %54

54:                                               ; preds = %48, %45, %0, %9
  %55 = load i32, i32* %5, align 16, !tbaa !5
  %56 = call nonnull align 8 dereferenceable(8) %"class.std::basic_ostream"* @_ZNSolsEi(%"class.std::basic_ostream"* nonnull align 8 dereferenceable(8) @_ZSt4cout, i32 %55)
  %57 = load i32, i32* %2, align 4, !tbaa !5
  %58 = add nsw i32 %57, -1
  store i32 %58, i32* %2, align 4, !tbaa !5
  %59 = icmp sgt i32 %57, 1
  br i1 %59, label %60, label %71

60:                                               ; preds = %54
  %61 = getelementptr inbounds [101 x i32], [101 x i32]* %1, i64 0, i64 1
  br label %62

62:                                               ; preds = %60, %62
  %63 = phi i32* [ %65, %62 ], [ %61, %60 ]
  %64 = call nonnull align 8 dereferenceable(8) %"class.std::basic_ostream"* @_ZSt16__ostream_insertIcSt11char_traitsIcEERSt13basic_ostreamIT_T0_ES6_PKS3_l(%"class.std::basic_ostream"* nonnull align 8 dereferenceable(8) @_ZSt4cout, i8* nonnull getelementptr inbounds ([2 x i8], [2 x i8]* @.str, i64 0, i64 0), i64 1)
  %65 = getelementptr inbounds i32, i32* %63, i64 1
  %66 = load i32, i32* %63, align 4, !tbaa !5
  %67 = call nonnull align 8 dereferenceable(8) %"class.std::basic_ostream"* @_ZNSolsEi(%"class.std::basic_ostream"* nonnull align 8 dereferenceable(8) @_ZSt4cout, i32 %66)
  %68 = load i32, i32* %2, align 4, !tbaa !5
  %69 = add nsw i32 %68, -1
  store i32 %69, i32* %2, align 4, !tbaa !5
  %70 = icmp sgt i32 %68, 1
  br i1 %70, label %62, label %71, !llvm.loop !12

71:                                               ; preds = %62, %54
  call void @llvm.lifetime.end.p0i8(i64 4, i8* nonnull %4) #6
  call void @llvm.lifetime.end.p0i8(i64 404, i8* nonnull %3) #6
  ret i32 0
}

; Function Attrs: argmemonly mustprogress nofree nosync nounwind willreturn
declare void @llvm.lifetime.start.p0i8(i64 immarg, i8* nocapture) #4

declare nonnull align 8 dereferenceable(16) %"class.std::basic_istream"* @_ZNSirsERi(%"class.std::basic_istream"* nonnull align 8 dereferenceable(16), i32* nonnull align 4 dereferenceable(4)) local_unnamed_addr #0

declare nonnull align 8 dereferenceable(8) %"class.std::basic_ostream"* @_ZNSolsEi(%"class.std::basic_ostream"* nonnull align 8 dereferenceable(8), i32) local_unnamed_addr #0

; Function Attrs: argmemonly mustprogress nofree nosync nounwind willreturn
declare void @llvm.lifetime.end.p0i8(i64 immarg, i8* nocapture) #4

declare nonnull align 8 dereferenceable(8) %"class.std::basic_ostream"* @_ZSt16__ostream_insertIcSt11char_traitsIcEERSt13basic_ostreamIT_T0_ES6_PKS3_l(%"class.std::basic_ostream"* nonnull align 8 dereferenceable(8), i8*, i64) local_unnamed_addr #0

; Function Attrs: sspstrong uwtable
define internal void @_GLOBAL__sub_I_1761.cpp() #5 section ".text.startup" {
  tail call void @_ZNSt8ios_base4InitC1Ev(%"class.std::ios_base::Init"* nonnull align 1 dereferenceable(1) @_ZStL8__ioinit)
  %1 = tail call i32 @__cxa_atexit(void (i8*)* bitcast (void (%"class.std::ios_base::Init"*)* @_ZNSt8ios_base4InitD1Ev to void (i8*)*), i8* getelementptr inbounds (%"class.std::ios_base::Init", %"class.std::ios_base::Init"* @_ZStL8__ioinit, i64 0, i32 0), i8* nonnull @__dso_handle) #6
  ret void
}


!llvm.module.flags = !{!0, !1, !2, !3}
!llvm.ident = !{!4}

!0 = !{i32 1, !"wchar_size", i32 4}
!1 = !{i32 7, !"PIC Level", i32 2}
!2 = !{i32 7, !"PIE Level", i32 2}
!3 = !{i32 7, !"uwtable", i32 1}
!4 = !{!"clang version 13.0.0"}
!5 = !{!6, !6, i64 0}
!6 = !{!"int", !7, i64 0}
!7 = !{!"omnipotent char", !8, i64 0}
!8 = !{!"Simple C++ TBAA"}
!9 = distinct !{!9, !10}
!10 = !{!"llvm.loop.mustprogress"}
!11 = distinct !{!11, !10}
!12 = distinct !{!12, !10}
